; Function Attrs: mustprogress uwtable
define void @_ZN3gmx22MessageStringCollectorC2Ev(ptr noundef nonnull writeonly align 8 captures(none) dereferenceable(8) initializes((0, 8)) %0) unnamed_addr #0 align 2 personality ptr @__gxx_personality_v0 {
  %2 = tail call noalias noundef nonnull dereferenceable(64) ptr @_Znwm(i64 noundef 64) #18
  tail call void @llvm.memset.p0.i64(ptr noundef nonnull align 8 dereferenceable(64) %2, i8 0, i64 24, i1 false)
  %3 = getelementptr inbounds nuw i8, ptr %2, i64 24
  %4 = getelementptr inbounds nuw i8, ptr %2, i64 40
  store ptr %4, ptr %3, align 8, !tbaa !4
  %5 = getelementptr inbounds nuw i8, ptr %2, i64 32
  store i64 0, ptr %5, align 8, !tbaa !10
  store i8 0, ptr %4, align 1, !tbaa !13
  %6 = getelementptr inbounds nuw i8, ptr %2, i64 56
  store i64 0, ptr %6, align 8, !tbaa !14
  store ptr %2, ptr %0, align 8, !tbaa !21
  ret void
}